; Function Attrs: nounwind uwtable
define ptr @lv_theme_get_font_large(ptr noundef %0) local_unnamed_addr #0 {
  %.not.i = icmp eq ptr %0, null
  br i1 %.not.i, label %4, label %2

2:                                                ; preds = %1
  %3 = tail call ptr @lv_obj_get_display(ptr noundef nonnull %0) #3
  br label %lv_theme_get_from_obj.exit

4:                                                ; preds = %1
  %5 = tail call ptr @lv_display_get_default() #3
  br label %lv_theme_get_from_obj.exit

lv_theme_get_from_obj.exit:                       ; preds = %2, %4
  %6 = phi ptr [ %3, %2 ], [ %5, %4 ]
  %7 = tail call ptr @lv_display_get_theme(ptr noundef %6) #3
  %.not = icmp eq ptr %7, null
  br i1 %.not, label %11, label %8

8:                                                ; preds = %lv_theme_get_from_obj.exit
  %9 = getelementptr inbounds nuw i8, ptr %7, i64 56
  %10 = load ptr, ptr %9, align 8, !tbaa !27
  br label %11

11:                                               ; preds = %lv_theme_get_from_obj.exit, %8
  %12 = phi ptr [ %10, %8 ], [ @lv_font_montserrat_14, %lv_theme_get_from_obj.exit ]
  ret ptr %12
}